; Function Attrs: mustprogress nofree norecurse nosync nounwind memory(read, argmem: readwrite, inaccessiblemem: none) uwtable
define hidden void @_ZN13RelocIteratorC2EP11CodeSectionPhS2_(ptr noundef nonnull align 8 dereferenceable(152) %0, ptr nocapture noundef readonly %1, ptr noundef %2, ptr noundef %3) unnamed_addr #7 align 2 {
  %5 = getelementptr inbounds i8, ptr %0, i64 112
  store ptr getelementptr inbounds inrange(-16, 72) (i8, ptr @_ZTV10Relocation, i64 16), ptr %5, align 8
  %6 = getelementptr inbounds i8, ptr %0, i64 120
  store ptr null, ptr %6, align 8
  %7 = getelementptr inbounds i8, ptr %0, i64 128
  store i32 0, ptr %7, align 8
  %8 = getelementptr inbounds i8, ptr %0, i64 56
  store i16 -1, ptr %8, align 8
  %9 = getelementptr inbounds i8, ptr %0, i64 64
  tail call void @llvm.memset.p0.i64(ptr noundef nonnull align 8 dereferenceable(48) %9, i8 0, i64 48, i1 false)
  %10 = getelementptr inbounds i8, ptr %1, i64 32
  %11 = load ptr, ptr %10, align 8
  %12 = getelementptr inbounds i8, ptr %11, i64 -2
  %13 = getelementptr inbounds i8, ptr %0, i64 8
  store ptr %12, ptr %13, align 8
  %14 = getelementptr inbounds i8, ptr %1, i64 40
  %15 = load ptr, ptr %14, align 8
  %16 = getelementptr inbounds i8, ptr %0, i64 16
  store ptr %15, ptr %16, align 8
  %17 = load ptr, ptr %1, align 8
  %18 = getelementptr inbounds i8, ptr %0, i64 32
  store ptr %17, ptr %18, align 8
  %19 = getelementptr inbounds i8, ptr %0, i64 24
  store ptr null, ptr %19, align 8
  %20 = getelementptr inbounds i8, ptr %1, i64 80
  %21 = load ptr, ptr %20, align 8
  %22 = getelementptr inbounds i8, ptr %21, i64 8
  %23 = getelementptr inbounds i8, ptr %0, i64 88
  br label %24

24:                                               ; preds = %4, %24
  %indvars.iv = phi i64 [ 0, %4 ], [ %indvars.iv.next, %24 ]
  %25 = getelementptr inbounds %class.CodeSection, ptr %22, i64 %indvars.iv
  %26 = load ptr, ptr %25, align 8
  %27 = getelementptr inbounds [3 x ptr], ptr %9, i64 0, i64 %indvars.iv
  store ptr %26, ptr %27, align 8
  %28 = getelementptr inbounds i8, ptr %25, i64 16
  %29 = load ptr, ptr %28, align 8
  %30 = getelementptr inbounds [3 x ptr], ptr %23, i64 0, i64 %indvars.iv
  store ptr %29, ptr %30, align 8
  %indvars.iv.next = add nuw nsw i64 %indvars.iv, 1
  %exitcond.not = icmp eq i64 %indvars.iv.next, 3
  br i1 %exitcond.not, label %31, label %24, !llvm.loop !9

31:                                               ; preds = %24
  tail call void @_ZN13RelocIterator10set_limitsEPhS0_(ptr noundef nonnull align 8 dereferenceable(152) %0, ptr noundef %2, ptr noundef %3)
  ret void
}